target datalayout = "e-m:e-p270:32:32-p271:32:32-p272:64:64-i64:64-i128:128-f80:128-n8:16:32:64-S128"
target triple = "x86_64-pc-linux-gnu"

%struct.rb_io = type { i64, ptr, i32, i32, i32, i32, i64, ptr, %struct.rb_io_internal_buffer, %struct.rb_io_internal_buffer, i64, %struct.rb_io_encoding, ptr, %struct.rb_io_internal_buffer, ptr, i64, i32, i32, i64, i64, i64 }
%struct.rb_io_encoding = type { ptr, ptr, i32, i64 }
%struct.rb_io_internal_buffer = type <{ ptr, i32, i32, i32 }>
%struct.RFile = type { %struct.RBasic, ptr }
%struct.RBasic = type { i64, i64 }
%struct.RData = type { %struct.RBasic, ptr, ptr, ptr }
%struct.argf = type { i64, i64, i64, i64, i64, i64, %struct.rb_io_encoding, i8, i8, i8 }

@rb_eIOError = dso_local global i64 0, align 8
@.str.4 = private unnamed_addr constant [21 x i8] c"uninitialized stream\00", align 1
@.str.8 = private unnamed_addr constant [23 x i8] c"not opened for writing\00", align 1

; Function Attrs: nounwind sspstrong uwtable
define dso_local void @rb_io_check_initialized(ptr noundef %0) #0 {
  %2 = alloca ptr, align 8
  store ptr %0, ptr %2, align 8, !tbaa !7
  %3 = load ptr, ptr %2, align 8, !tbaa !7
  %4 = icmp ne ptr %3, null
  br i1 %4, label %7, label %5

5:                                                ; preds = %1
  %6 = load i64, ptr @rb_eIOError, align 8, !tbaa !32
  call void (i64, ptr, ...) @rb_raise(i64 noundef %6, ptr noundef @.str.4) #31
  unreachable

7:                                                ; preds = %1
  ret void
}

; Function Attrs: nounwind sspstrong uwtable
define internal ptr @rb_io_get_fptr(i64 noundef %0) #0 {
  %2 = alloca i64, align 8
  %3 = alloca ptr, align 8
  store i64 %0, ptr %2, align 8, !tbaa !32
  call void @llvm.lifetime.start.p0(i64 8, ptr %3) #28
  %4 = load i64, ptr %2, align 8, !tbaa !32
  %5 = inttoptr i64 %4 to ptr
  %6 = getelementptr inbounds nuw %struct.RFile, ptr %5, i32 0, i32 1
  %7 = load ptr, ptr %6, align 8, !tbaa !34
  store ptr %7, ptr %3, align 8, !tbaa !7
  %8 = load ptr, ptr %3, align 8, !tbaa !7
  call void @rb_io_check_initialized(ptr noundef %8)
  %9 = load ptr, ptr %3, align 8, !tbaa !7
  call void @llvm.lifetime.end.p0(i64 8, ptr %3) #28
  ret ptr %9
}

; Function Attrs: nounwind sspstrong uwtable
define dso_local i64 @rb_io_get_write_io(i64 noundef %0) #0 {
  %2 = alloca i64, align 8
  %3 = alloca i64, align 8
  %4 = alloca i64, align 8
  %5 = alloca i32, align 4
  store i64 %0, ptr %3, align 8, !tbaa !32
  call void @llvm.lifetime.start.p0(i64 8, ptr %4) #28
  %6 = load i64, ptr %3, align 8, !tbaa !32
  %7 = call ptr @rb_io_get_fptr(i64 noundef %6)
  %8 = getelementptr inbounds nuw %struct.rb_io, ptr %7, i32 0, i32 10
  %9 = load i64, ptr %8, align 8, !tbaa !33
  store i64 %9, ptr %4, align 8, !tbaa !32
  %10 = load i64, ptr %4, align 8, !tbaa !32
  %11 = icmp ne i64 %10, 0
  br i1 %11, label %12, label %14

12:                                               ; preds = %1
  %13 = load i64, ptr %4, align 8, !tbaa !32
  store i64 %13, ptr %2, align 8
  store i32 1, ptr %5, align 4
  br label %16

14:                                               ; preds = %1
  %15 = load i64, ptr %3, align 8, !tbaa !32
  store i64 %15, ptr %2, align 8
  store i32 1, ptr %5, align 4
  br label %16

16:                                               ; preds = %14, %12
  call void @llvm.lifetime.end.p0(i64 8, ptr %4) #28
  %17 = load i64, ptr %2, align 8
  ret i64 %17
}

; Function Attrs: inlinehint nounwind sspstrong willreturn memory(none) uwtable
define internal zeroext i1 @RB_TEST(i64 noundef %0) #9 {
  %2 = alloca i64, align 8
  store i64 %0, ptr %2, align 8, !tbaa !32
  %3 = load i64, ptr %2, align 8, !tbaa !32
  %4 = and i64 %3, -5
  %5 = icmp ne i64 %4, 0
  ret i1 %5
}

; Function Attrs: nounwind sspstrong uwtable
define internal i64 @argf_write_io(i64 noundef %0) #0 {
  %2 = alloca i64, align 8
  store i64 %0, ptr %2, align 8, !tbaa !32
  %3 = load i64, ptr %2, align 8, !tbaa !32
  %4 = inttoptr i64 %3 to ptr
  %5 = getelementptr inbounds nuw %struct.RData, ptr %4, i32 0, i32 3
  %6 = load ptr, ptr %5, align 8, !tbaa !62
  %7 = getelementptr inbounds nuw %struct.argf, ptr %6, i32 0, i32 1
  %8 = load i64, ptr %7, align 8, !tbaa !64
  %9 = call zeroext i1 @RB_TEST(i64 noundef %8) #33
  br i1 %9, label %12, label %10

10:                                               ; preds = %1
  %11 = load i64, ptr @rb_eIOError, align 8, !tbaa !32
  call void (i64, ptr, ...) @rb_raise(i64 noundef %11, ptr noundef @.str.8) #31
  unreachable

12:                                               ; preds = %1
  %13 = load i64, ptr %2, align 8, !tbaa !32
  %14 = inttoptr i64 %13 to ptr
  %15 = getelementptr inbounds nuw %struct.RData, ptr %14, i32 0, i32 3
  %16 = load ptr, ptr %15, align 8, !tbaa !62
  %17 = getelementptr inbounds nuw %struct.argf, ptr %16, i32 0, i32 1
  %18 = load i64, ptr %17, align 8, !tbaa !64
  %19 = call i64 @rb_io_get_write_io(i64 noundef %18)
  ret i64 %19
}

; Function Attrs: nounwind sspstrong uwtable
define internal i64 @argf_write(i32 noundef %0, ptr noundef %1, i64 noundef %2) #0 {
  %4 = alloca i32, align 4
  %5 = alloca ptr, align 8
  %6 = alloca i64, align 8
  store i32 %0, ptr %4, align 4, !tbaa !13
  store ptr %1, ptr %5, align 8, !tbaa !90
  store i64 %2, ptr %6, align 8, !tbaa !32
  %7 = load i64, ptr %6, align 8, !tbaa !32
  %8 = call i64 @argf_write_io(i64 noundef %7)
  %9 = load i32, ptr %4, align 4, !tbaa !13
  %10 = load ptr, ptr %5, align 8, !tbaa !90
  %11 = call i64 @rb_io_writev(i64 noundef %8, i32 noundef %9, ptr noundef %10)
  ret i64 %11
}