; Function Attrs: nounwind sspstrong uwtable
define internal i64 @argf_write(i32 noundef %0, ptr noundef %1, i64 noundef %2) #0 {
  %4 = inttoptr i64 %2 to ptr
  %5 = getelementptr inbounds nuw i8, ptr %4, i64 32
  %6 = load ptr, ptr %5, align 8, !tbaa !59
  %7 = getelementptr inbounds nuw i8, ptr %6, i64 8
  %8 = load i64, ptr %7, align 8, !tbaa !61
  %9 = and i64 %8, -5
  %.not.i = icmp eq i64 %9, 0
  br i1 %.not.i, label %10, label %12

10:                                               ; preds = %3
  %11 = load i64, ptr @rb_eIOError, align 8, !tbaa !23
  tail call void (i64, ptr, ...) @rb_raise(i64 noundef %11, ptr noundef nonnull @.str.8) #30
  unreachable

12:                                               ; preds = %3
  %13 = inttoptr i64 %8 to ptr
  %14 = getelementptr inbounds nuw i8, ptr %13, i64 16
  %15 = load ptr, ptr %14, align 8, !tbaa !29
  %.not.i.i.i.i = icmp eq ptr %15, null
  br i1 %.not.i.i.i.i, label %16, label %argf_write_io.exit

16:                                               ; preds = %12
  %17 = load i64, ptr @rb_eIOError, align 8, !tbaa !23
  tail call void (i64, ptr, ...) @rb_raise(i64 noundef %17, ptr noundef nonnull @.str.4) #30
  unreachable

argf_write_io.exit:                               ; preds = %12
  %18 = getelementptr inbounds nuw i8, ptr %15, i64 88
  %19 = load i64, ptr %18, align 8, !tbaa !32
  %.not.i.i = icmp eq i64 %19, 0
  %..i.i = select i1 %.not.i.i, i64 %8, i64 %19
  %20 = tail call fastcc i64 @rb_io_writev(i64 noundef %..i.i, i32 noundef %0, ptr noundef %1)
  ret i64 %20
}